; Function Attrs: nounwind uwtable
define dso_local void @Curl_conn_get_host(ptr noundef %0, i32 noundef %1, ptr noundef %2, ptr noundef %3, ptr noundef %4) local_unnamed_addr #1 {
  %6 = getelementptr inbounds nuw i8, ptr %0, i64 24
  %7 = load ptr, ptr %6, align 8, !tbaa !56
  %8 = getelementptr inbounds nuw i8, ptr %7, i64 608
  %9 = sext i32 %1 to i64
  %10 = getelementptr inbounds [2 x ptr], ptr %8, i64 0, i64 %9
  %11 = load ptr, ptr %10, align 8, !tbaa !51
  %.not = icmp eq ptr %11, null
  br i1 %.not, label %16, label %12

12:                                               ; preds = %5
  %13 = load ptr, ptr %11, align 8, !tbaa !15
  %14 = getelementptr inbounds nuw i8, ptr %13, i64 48
  %15 = load ptr, ptr %14, align 8, !tbaa !16
  tail call void %15(ptr noundef nonnull %11, ptr noundef nonnull %0, ptr noundef %2, ptr noundef %3, ptr noundef %4) #12
  br label %23

16:                                               ; preds = %5
  %17 = getelementptr inbounds nuw i8, ptr %7, i64 104
  %18 = load ptr, ptr %17, align 8, !tbaa !20
  store ptr %18, ptr %2, align 8, !tbaa !41
  %19 = getelementptr inbounds nuw i8, ptr %7, i64 112
  %20 = load ptr, ptr %19, align 8, !tbaa !42
  store ptr %20, ptr %3, align 8, !tbaa !41
  %21 = getelementptr inbounds nuw i8, ptr %7, i64 1352
  %22 = load i32, ptr %21, align 8, !tbaa !149
  store i32 %22, ptr %4, align 4, !tbaa !44
  br label %23

23:                                               ; preds = %16, %12
  ret void
}